target datalayout = "e-m:e-p270:32:32-p271:32:32-p272:64:64-i64:64-i128:128-f80:128-n8:16:32:64-S128"
target triple = "x86_64-pc-linux-gnu"

%struct.strbuf = type { i64, i64, ptr }

@.str.40 = private unnamed_addr constant [12 x i8] c"child_ready\00", align 1
@__const.fn_child_ready_fl.buf_payload = private unnamed_addr constant %struct.strbuf { i64 0, i64 0, ptr @strbuf_slopbuf }, align 8
@.str.41 = private unnamed_addr constant [23 x i8] c"[ch%d] pid:%d ready:%s\00", align 1

; Function Attrs: nounwind uwtable
define internal void @fn_child_ready_fl(ptr noundef %0, i32 noundef %1, i64 noundef %2, i32 noundef %3, i32 noundef %4, ptr noundef %5, i64 noundef %6) #0 {
  %8 = alloca ptr, align 8
  %9 = alloca i32, align 4
  %10 = alloca i64, align 8
  %11 = alloca i32, align 4
  %12 = alloca i32, align 4
  %13 = alloca ptr, align 8
  %14 = alloca i64, align 8
  %15 = alloca ptr, align 8
  %16 = alloca %struct.strbuf, align 8
  store ptr %0, ptr %8, align 8, !tbaa !8
  store i32 %1, ptr %9, align 4, !tbaa !4
  store i64 %2, ptr %10, align 8, !tbaa !12
  store i32 %3, ptr %11, align 4, !tbaa !4
  store i32 %4, ptr %12, align 4, !tbaa !4
  store ptr %5, ptr %13, align 8, !tbaa !8
  store i64 %6, ptr %14, align 8, !tbaa !12
  call void @llvm.lifetime.start.p0(i64 8, ptr %15) #9
  store ptr @.str.40, ptr %15, align 8, !tbaa !8
  call void @llvm.lifetime.start.p0(i64 24, ptr %16) #9
  call void @llvm.memcpy.p0.p0.i64(ptr align 8 %16, ptr align 8 @__const.fn_child_ready_fl.buf_payload, i64 24, i1 false)
  %17 = load i32, ptr %11, align 4, !tbaa !4
  %18 = load i32, ptr %12, align 4, !tbaa !4
  %19 = load ptr, ptr %13, align 8, !tbaa !8
  call void (ptr, ptr, ...) @strbuf_addf(ptr noundef %16, ptr noundef @.str.41, i32 noundef %17, i32 noundef %18, ptr noundef %19)
  %20 = load ptr, ptr %8, align 8, !tbaa !8
  %21 = load i32, ptr %9, align 4, !tbaa !4
  %22 = load ptr, ptr %15, align 8, !tbaa !8
  call void @perf_io_write_fl(ptr noundef %20, i32 noundef %21, ptr noundef %22, ptr noundef null, ptr noundef %10, ptr noundef %14, ptr noundef null, ptr noundef %16)
  call void @strbuf_release(ptr noundef %16)
  call void @llvm.lifetime.end.p0(i64 24, ptr %16) #9
  call void @llvm.lifetime.end.p0(i64 8, ptr %15) #9
  ret void
}