; Function Attrs: nounwind uwtable
define internal void @fn_child_ready_fl(ptr noundef %0, i32 noundef %1, i64 noundef %2, i32 noundef %3, i32 noundef %4, ptr noundef %5, i64 noundef %6) #0 {
  %8 = alloca i64, align 8
  %9 = alloca i64, align 8
  %10 = alloca %struct.strbuf, align 8
  store i64 %2, ptr %8, align 8, !tbaa !9
  store i64 %6, ptr %9, align 8, !tbaa !9
  call void @llvm.lifetime.start.p0(i64 24, ptr nonnull %10) #7
  call void @llvm.memcpy.p0.p0.i64(ptr noundef nonnull align 8 dereferenceable(24) %10, ptr noundef nonnull align 8 dereferenceable(24) @__const.fn_counter.buf_payload, i64 24, i1 false)
  call void (ptr, ptr, ...) @strbuf_addf(ptr noundef nonnull %10, ptr noundef nonnull @.str.41, i32 noundef %3, i32 noundef %4, ptr noundef %5) #7
  call fastcc void @perf_io_write_fl(ptr noundef %0, i32 noundef %1, ptr noundef nonnull @.str.40, ptr noundef null, ptr noundef nonnull %8, ptr noundef nonnull %9, ptr noundef null, ptr noundef %10)
  call void @strbuf_release(ptr noundef nonnull %10) #7
  call void @llvm.lifetime.end.p0(i64 24, ptr nonnull %10) #7
  ret void
}